; Function Attrs: nounwind uwtable
define hidden void @magic_close(ptr noundef %0) local_unnamed_addr #0 {
  %2 = icmp eq ptr %0, null
  br i1 %2, label %4, label %3

3:                                                ; preds = %1
  tail call void @file_ms_free(ptr noundef nonnull %0) #11
  br label %4

4:                                                ; preds = %1, %3
  ret void
}